target datalayout = "e-m:e-p270:32:32-p271:32:32-p272:64:64-i64:64-i128:128-f80:128-n8:16:32:64-S128"
target triple = "x86_64-pc-linux-gnu"

%"struct.std::nothrow_t" = type { i8 }
%"class.marisa::Trie" = type { %"class.marisa::scoped_ptr" }
%"class.marisa::scoped_ptr" = type { ptr }
%"class.marisa::Exception" = type { %"class.std::exception", ptr, i32, i32, ptr }
%"class.std::exception" = type { ptr }
%"class.marisa::grimoire::io::Mapper" = type <{ ptr, ptr, i64, i64, i32, [4 x i8] }>

@_ZSt7nothrow = external global %"struct.std::nothrow_t", align 1
@.str = private unnamed_addr constant [128 x i8] c"generated/home/dtcxzyw/WorkSpace/Projects/compilers/llvm-opt-benchmark/bench/opencc/OpenCC/deps/marisa-0.2.6/lib/marisa/trie.cc\00", align 1
@_ZTIN6marisa9ExceptionE = linkonce_odr constant { ptr, ptr, ptr } { ptr getelementptr inbounds (ptr, ptr @_ZTVN10__cxxabiv120__si_class_type_infoE, i64 2), ptr @_ZTSN6marisa9ExceptionE, ptr @_ZTISt9exception }, comdat, align 8
@.str.4 = private unnamed_addr constant [180 x i8] c"generated/home/dtcxzyw/WorkSpace/Projects/compilers/llvm-opt-benchmark/bench/opencc/OpenCC/deps/marisa-0.2.6/lib/marisa/trie.cc:33: MARISA_NULL_ERROR: (ptr == NULL) && (size != 0)\00", align 1
@.str.5 = private unnamed_addr constant [172 x i8] c"generated/home/dtcxzyw/WorkSpace/Projects/compilers/llvm-opt-benchmark/bench/opencc/OpenCC/deps/marisa-0.2.6/lib/marisa/trie.cc:36: MARISA_MEMORY_ERROR: temp.get() == NULL\00", align 1
@_ZTVN6marisa9ExceptionE = linkonce_odr unnamed_addr constant { [5 x ptr] } { [5 x ptr] [ptr null, ptr @_ZTIN6marisa9ExceptionE, ptr @_ZNSt9exceptionD2Ev, ptr @_ZN6marisa9ExceptionD0Ev, ptr @_ZNK6marisa9Exception4whatEv] }, comdat, align 8
@_ZTVSt9exception = available_externally unnamed_addr constant { [5 x ptr] } { [5 x ptr] [ptr null, ptr @_ZTISt9exception, ptr @_ZNSt9exceptionD1Ev, ptr @_ZNSt9exceptionD0Ev, ptr @_ZNKSt9exception4whatEv] }, align 8

; Function Attrs: inlinehint mustprogress nounwind uwtable
define linkonce_odr void @_ZSt4swapIPN6marisa8grimoire4trie9LoudsTrieEENSt9enable_ifIXsr6__and_ISt6__not_ISt15__is_tuple_likeIT_EESt21is_move_constructibleIS8_ESt18is_move_assignableIS8_EEE5valueEvE4typeERS8_SH_(ptr noundef nonnull align 8 dereferenceable(8) %0, ptr noundef nonnull align 8 dereferenceable(8) %1) #9 comdat {
  %3 = alloca ptr, align 8
  %4 = alloca ptr, align 8
  %5 = alloca ptr, align 8
  store ptr %0, ptr %3, align 8, !tbaa !72
  store ptr %1, ptr %4, align 8, !tbaa !72
  call void @llvm.lifetime.start.p0(i64 8, ptr %5) #3
  %6 = load ptr, ptr %3, align 8, !tbaa !72
  %7 = load ptr, ptr %6, align 8, !tbaa !17
  store ptr %7, ptr %5, align 8, !tbaa !17
  %8 = load ptr, ptr %4, align 8, !tbaa !72
  %9 = load ptr, ptr %8, align 8, !tbaa !17
  %10 = load ptr, ptr %3, align 8, !tbaa !72
  store ptr %9, ptr %10, align 8, !tbaa !17
  %11 = load ptr, ptr %5, align 8, !tbaa !17
  %12 = load ptr, ptr %4, align 8, !tbaa !72
  store ptr %11, ptr %12, align 8, !tbaa !17
  call void @llvm.lifetime.end.p0(i64 8, ptr %5) #3
  ret void
}

; Function Attrs: mustprogress nounwind uwtable
define linkonce_odr void @_ZNSt9exceptionC2Ev(ptr noundef nonnull align 8 dereferenceable(8) %0) unnamed_addr #5 comdat align 2 {
  %2 = alloca ptr, align 8
  store ptr %0, ptr %2, align 8, !tbaa !43
  %3 = load ptr, ptr %2, align 8
  store ptr getelementptr inbounds inrange(-16, 24) ({ [5 x ptr] }, ptr @_ZTVSt9exception, i32 0, i32 0, i32 2), ptr %3, align 8, !tbaa !24
  ret void
}

; Function Attrs: mustprogress nounwind uwtable
define linkonce_odr void @_ZN6marisa10scoped_ptrINS_8grimoire4trie9LoudsTrieEE4swapERS4_(ptr noundef nonnull align 8 dereferenceable(8) %0, ptr noundef nonnull align 8 dereferenceable(8) %1) #5 comdat align 2 {
  %3 = alloca ptr, align 8
  %4 = alloca ptr, align 8
  store ptr %0, ptr %3, align 8, !tbaa !8
  store ptr %1, ptr %4, align 8, !tbaa !8
  %5 = load ptr, ptr %3, align 8
  %6 = getelementptr inbounds nuw %"class.marisa::scoped_ptr", ptr %5, i32 0, i32 0
  %7 = load ptr, ptr %4, align 8, !tbaa !8
  %8 = getelementptr inbounds nuw %"class.marisa::scoped_ptr", ptr %7, i32 0, i32 0
  call void @_ZSt4swapIPN6marisa8grimoire4trie9LoudsTrieEENSt9enable_ifIXsr6__and_ISt6__not_ISt15__is_tuple_likeIT_EESt21is_move_constructibleIS8_ESt18is_move_assignableIS8_EEE5valueEvE4typeERS8_SH_(ptr noundef nonnull align 8 dereferenceable(8) %6, ptr noundef nonnull align 8 dereferenceable(8) %8) #3
  ret void
}

; Function Attrs: mustprogress nounwind uwtable
define linkonce_odr noundef ptr @_ZNK6marisa10scoped_ptrINS_8grimoire4trie9LoudsTrieEEptEv(ptr noundef nonnull align 8 dereferenceable(8) %0) #5 comdat align 2 {
  %2 = alloca ptr, align 8
  store ptr %0, ptr %2, align 8, !tbaa !8
  %3 = load ptr, ptr %2, align 8
  %4 = getelementptr inbounds nuw %"class.marisa::scoped_ptr", ptr %3, i32 0, i32 0
  %5 = load ptr, ptr %4, align 8, !tbaa !10
  ret ptr %5
}

; Function Attrs: mustprogress nounwind uwtable
define linkonce_odr noundef ptr @_ZNK6marisa10scoped_ptrINS_8grimoire4trie9LoudsTrieEE3getEv(ptr noundef nonnull align 8 dereferenceable(8) %0) #5 comdat align 2 {
  %2 = alloca ptr, align 8
  store ptr %0, ptr %2, align 8, !tbaa !8
  %3 = load ptr, ptr %2, align 8
  %4 = getelementptr inbounds nuw %"class.marisa::scoped_ptr", ptr %3, i32 0, i32 0
  %5 = load ptr, ptr %4, align 8, !tbaa !10
  ret ptr %5
}

; Function Attrs: mustprogress nounwind uwtable
define linkonce_odr void @_ZN6marisa10scoped_ptrINS_8grimoire4trie9LoudsTrieEEC2EPS3_(ptr noundef nonnull align 8 dereferenceable(8) %0, ptr noundef %1) unnamed_addr #5 comdat align 2 {
  %3 = alloca ptr, align 8
  %4 = alloca ptr, align 8
  store ptr %0, ptr %3, align 8, !tbaa !8
  store ptr %1, ptr %4, align 8, !tbaa !17
  %5 = load ptr, ptr %3, align 8
  %6 = getelementptr inbounds nuw %"class.marisa::scoped_ptr", ptr %5, i32 0, i32 0
  %7 = load ptr, ptr %4, align 8, !tbaa !17
  store ptr %7, ptr %6, align 8, !tbaa !10
  ret void
}

; Function Attrs: mustprogress nounwind uwtable
define linkonce_odr void @_ZN6marisa9ExceptionC2EPKci18marisa_error_code_S2_(ptr noundef nonnull align 8 dereferenceable(32) %0, ptr noundef %1, i32 noundef %2, i32 noundef %3, ptr noundef %4) unnamed_addr #5 comdat align 2 {
  %6 = alloca ptr, align 8
  %7 = alloca ptr, align 8
  %8 = alloca i32, align 4
  %9 = alloca i32, align 4
  %10 = alloca ptr, align 8
  store ptr %0, ptr %6, align 8, !tbaa !18
  store ptr %1, ptr %7, align 8, !tbaa !20
  store i32 %2, ptr %8, align 4, !tbaa !15
  store i32 %3, ptr %9, align 4, !tbaa !22
  store ptr %4, ptr %10, align 8, !tbaa !20
  %11 = load ptr, ptr %6, align 8
  call void @_ZNSt9exceptionC2Ev(ptr noundef nonnull align 8 dereferenceable(8) %11) #3
  store ptr getelementptr inbounds inrange(-16, 24) ({ [5 x ptr] }, ptr @_ZTVN6marisa9ExceptionE, i32 0, i32 0, i32 2), ptr %11, align 8, !tbaa !24
  %12 = getelementptr inbounds nuw %"class.marisa::Exception", ptr %11, i32 0, i32 1
  %13 = load ptr, ptr %7, align 8, !tbaa !20
  store ptr %13, ptr %12, align 8, !tbaa !26
  %14 = getelementptr inbounds nuw %"class.marisa::Exception", ptr %11, i32 0, i32 2
  %15 = load i32, ptr %8, align 4, !tbaa !15
  store i32 %15, ptr %14, align 8, !tbaa !29
  %16 = getelementptr inbounds nuw %"class.marisa::Exception", ptr %11, i32 0, i32 3
  %17 = load i32, ptr %9, align 4, !tbaa !22
  store i32 %17, ptr %16, align 4, !tbaa !30
  %18 = getelementptr inbounds nuw %"class.marisa::Exception", ptr %11, i32 0, i32 4
  %19 = load ptr, ptr %10, align 8, !tbaa !20
  store ptr %19, ptr %18, align 8, !tbaa !31
  ret void
}

; Function Attrs: mustprogress uwtable
define void @_ZN6marisa4Trie3mapEPKvm(ptr noundef nonnull align 8 dereferenceable(8) %0, ptr noundef %1, i64 noundef %2) #4 align 2 personality ptr @__gxx_personality_v0 {
  %4 = alloca ptr, align 8
  %5 = alloca ptr, align 8
  %6 = alloca i64, align 8
  %7 = alloca ptr, align 8
  %8 = alloca i1, align 1
  %9 = alloca ptr, align 8
  %10 = alloca i32, align 4
  %11 = alloca %"class.marisa::scoped_ptr", align 8
  %12 = alloca ptr, align 8
  %13 = alloca i1, align 1
  %14 = alloca ptr, align 8
  %15 = alloca i1, align 1
  %16 = alloca %"class.marisa::grimoire::io::Mapper", align 8
  store ptr %0, ptr %4, align 8, !tbaa !3
  store ptr %1, ptr %5, align 8, !tbaa !32
  store i64 %2, ptr %6, align 8, !tbaa !33
  %17 = load ptr, ptr %4, align 8
  %18 = load ptr, ptr %5, align 8, !tbaa !32
  %19 = icmp eq ptr %18, null
  store i1 false, ptr %8, align 1
  br i1 %19, label %20, label %27

20:                                               ; preds = %3
  %21 = load i64, ptr %6, align 8, !tbaa !33
  %22 = icmp ne i64 %21, 0
  br i1 %22, label %23, label %27

23:                                               ; preds = %20
  %24 = call ptr @__cxa_allocate_exception(i64 32) #3
  store ptr %24, ptr %7, align 8
  store i1 true, ptr %8, align 1
  invoke void @_ZN6marisa9ExceptionC2EPKci18marisa_error_code_S2_(ptr noundef nonnull align 8 dereferenceable(32) %24, ptr noundef @.str, i32 noundef 33, i32 noundef 2, ptr noundef @.str.4)
          to label %25 unwind label %51

25:                                               ; preds = %23
  call void @__cxa_throw(ptr %24, ptr @_ZTIN6marisa9ExceptionE, ptr @_ZNSt9exceptionD2Ev) #12
  unreachable

26:                                               ; No predecessors!
  br label %27

27:                                               ; preds = %26, %20, %3
  call void @llvm.lifetime.start.p0(i64 8, ptr %11) #3
  %28 = call noalias noundef ptr @_ZnwmRKSt9nothrow_t(i64 noundef 1136, ptr noundef nonnull align 1 dereferenceable(1) @_ZSt7nothrow) #11
  %29 = icmp eq ptr %28, null
  store i1 false, ptr %13, align 1
  br i1 %29, label %32, label %30

30:                                               ; preds = %27
  store ptr %28, ptr %12, align 8
  store i1 true, ptr %13, align 1
  invoke void @_ZN6marisa8grimoire4trie9LoudsTrieC1Ev(ptr noundef nonnull align 8 dereferenceable(1136) %28)
          to label %31 unwind label %59

31:                                               ; preds = %30
  br label %32

32:                                               ; preds = %31, %27
  %33 = phi ptr [ %28, %31 ], [ null, %27 ]
  call void @_ZN6marisa10scoped_ptrINS_8grimoire4trie9LoudsTrieEEC2EPS3_(ptr noundef nonnull align 8 dereferenceable(8) %11, ptr noundef %33)
  store i1 false, ptr %15, align 1
  %34 = invoke noundef ptr @_ZNK6marisa10scoped_ptrINS_8grimoire4trie9LoudsTrieEE3getEv(ptr noundef nonnull align 8 dereferenceable(8) %11)
          to label %35 unwind label %67

35:                                               ; preds = %32
  %36 = icmp eq ptr %34, null
  br i1 %36, label %37, label %41

37:                                               ; preds = %35
  %38 = call ptr @__cxa_allocate_exception(i64 32) #3
  store ptr %38, ptr %14, align 8
  store i1 true, ptr %15, align 1
  invoke void @_ZN6marisa9ExceptionC2EPKci18marisa_error_code_S2_(ptr noundef nonnull align 8 dereferenceable(32) %38, ptr noundef @.str, i32 noundef 36, i32 noundef 8, ptr noundef @.str.5)
          to label %39 unwind label %71

39:                                               ; preds = %37
  invoke void @__cxa_throw(ptr %38, ptr @_ZTIN6marisa9ExceptionE, ptr @_ZNSt9exceptionD2Ev) #12
          to label %95 unwind label %67

40:                                               ; No predecessors!
  br label %41

41:                                               ; preds = %40, %35
  call void @llvm.lifetime.start.p0(i64 40, ptr %16) #3
  invoke void @_ZN6marisa8grimoire2io6MapperC1Ev(ptr noundef nonnull align 8 dereferenceable(36) %16)
          to label %42 unwind label %79

42:                                               ; preds = %41
  %43 = load ptr, ptr %5, align 8, !tbaa !32
  %44 = load i64, ptr %6, align 8, !tbaa !33
  invoke void @_ZN6marisa8grimoire2io6Mapper4openEPKvm(ptr noundef nonnull align 8 dereferenceable(36) %16, ptr noundef %43, i64 noundef %44)
          to label %45 unwind label %83

45:                                               ; preds = %42
  %46 = invoke noundef ptr @_ZNK6marisa10scoped_ptrINS_8grimoire4trie9LoudsTrieEEptEv(ptr noundef nonnull align 8 dereferenceable(8) %11)
          to label %47 unwind label %83

47:                                               ; preds = %45
  invoke void @_ZN6marisa8grimoire4trie9LoudsTrie3mapERNS0_2io6MapperE(ptr noundef nonnull align 8 dereferenceable(1136) %46, ptr noundef nonnull align 8 dereferenceable(36) %16)
          to label %48 unwind label %83

48:                                               ; preds = %47
  %49 = getelementptr inbounds nuw %"class.marisa::Trie", ptr %17, i32 0, i32 0
  invoke void @_ZN6marisa10scoped_ptrINS_8grimoire4trie9LoudsTrieEE4swapERS4_(ptr noundef nonnull align 8 dereferenceable(8) %49, ptr noundef nonnull align 8 dereferenceable(8) %11)
          to label %50 unwind label %83

50:                                               ; preds = %48
  call void @_ZN6marisa8grimoire2io6MapperD1Ev(ptr noundef nonnull align 8 dereferenceable(36) %16) #3
  call void @llvm.lifetime.end.p0(i64 40, ptr %16) #3
  call void @_ZN6marisa10scoped_ptrINS_8grimoire4trie9LoudsTrieEED2Ev(ptr noundef nonnull align 8 dereferenceable(8) %11) #3
  call void @llvm.lifetime.end.p0(i64 8, ptr %11) #3
  ret void

51:                                               ; preds = %23
  %52 = landingpad { ptr, i32 }
          cleanup
  %53 = extractvalue { ptr, i32 } %52, 0
  store ptr %53, ptr %9, align 8
  %54 = extractvalue { ptr, i32 } %52, 1
  store i32 %54, ptr %10, align 4
  %55 = load i1, ptr %8, align 1
  br i1 %55, label %56, label %58

56:                                               ; preds = %51
  %57 = load ptr, ptr %7, align 8
  call void @__cxa_free_exception(ptr %57) #3
  br label %58

58:                                               ; preds = %56, %51
  br label %90

59:                                               ; preds = %30
  %60 = landingpad { ptr, i32 }
          cleanup
  %61 = extractvalue { ptr, i32 } %60, 0
  store ptr %61, ptr %9, align 8
  %62 = extractvalue { ptr, i32 } %60, 1
  store i32 %62, ptr %10, align 4
  %63 = load i1, ptr %13, align 1
  br i1 %63, label %64, label %66

64:                                               ; preds = %59
  %65 = load ptr, ptr %12, align 8
  call void @_ZdlPvRKSt9nothrow_t(ptr noundef %65, ptr noundef nonnull align 1 dereferenceable(1) @_ZSt7nothrow) #10
  br label %66

66:                                               ; preds = %64, %59
  br label %89

67:                                               ; preds = %39, %32
  %68 = landingpad { ptr, i32 }
          cleanup
  %69 = extractvalue { ptr, i32 } %68, 0
  store ptr %69, ptr %9, align 8
  %70 = extractvalue { ptr, i32 } %68, 1
  store i32 %70, ptr %10, align 4
  br label %88

71:                                               ; preds = %37
  %72 = landingpad { ptr, i32 }
          cleanup
  %73 = extractvalue { ptr, i32 } %72, 0
  store ptr %73, ptr %9, align 8
  %74 = extractvalue { ptr, i32 } %72, 1
  store i32 %74, ptr %10, align 4
  %75 = load i1, ptr %15, align 1
  br i1 %75, label %76, label %78

76:                                               ; preds = %71
  %77 = load ptr, ptr %14, align 8
  call void @__cxa_free_exception(ptr %77) #3
  br label %78

78:                                               ; preds = %76, %71
  br label %88

79:                                               ; preds = %41
  %80 = landingpad { ptr, i32 }
          cleanup
  %81 = extractvalue { ptr, i32 } %80, 0
  store ptr %81, ptr %9, align 8
  %82 = extractvalue { ptr, i32 } %80, 1
  store i32 %82, ptr %10, align 4
  br label %87

83:                                               ; preds = %48, %47, %45, %42
  %84 = landingpad { ptr, i32 }
          cleanup
  %85 = extractvalue { ptr, i32 } %84, 0
  store ptr %85, ptr %9, align 8
  %86 = extractvalue { ptr, i32 } %84, 1
  store i32 %86, ptr %10, align 4
  call void @_ZN6marisa8grimoire2io6MapperD1Ev(ptr noundef nonnull align 8 dereferenceable(36) %16) #3
  br label %87

87:                                               ; preds = %83, %79
  call void @llvm.lifetime.end.p0(i64 40, ptr %16) #3
  br label %88

88:                                               ; preds = %87, %78, %67
  call void @_ZN6marisa10scoped_ptrINS_8grimoire4trie9LoudsTrieEED2Ev(ptr noundef nonnull align 8 dereferenceable(8) %11) #3
  br label %89

89:                                               ; preds = %88, %66
  call void @llvm.lifetime.end.p0(i64 8, ptr %11) #3
  br label %90

90:                                               ; preds = %89, %58
  %91 = load ptr, ptr %9, align 8
  %92 = load i32, ptr %10, align 4
  %93 = insertvalue { ptr, i32 } poison, ptr %91, 0
  %94 = insertvalue { ptr, i32 } %93, i32 %92, 1
  resume { ptr, i32 } %94

95:                                               ; preds = %39
  unreachable
}