; Function Attrs: mustprogress uwtable
define void @_ZN6marisa4Trie3mapEPKvm(ptr noundef nonnull align 8 captures(none) dereferenceable(8) %0, ptr noundef %1, i64 noundef %2) local_unnamed_addr #5 align 2 personality ptr @__gxx_personality_v0 {
  %4 = alloca %"class.marisa::scoped_ptr", align 8
  %5 = alloca %"class.marisa::grimoire::io::Mapper", align 8
  %6 = icmp eq ptr %1, null
  %7 = icmp ne i64 %2, 0
  %or.cond = and i1 %6, %7
  br i1 %or.cond, label %8, label %14

8:                                                ; preds = %3
  %9 = tail call ptr @__cxa_allocate_exception(i64 32) #12
  store ptr getelementptr inbounds nuw inrange(-16, 24) (i8, ptr @_ZTVN6marisa9ExceptionE, i64 16), ptr %9, align 8, !tbaa !9
  %10 = getelementptr inbounds nuw i8, ptr %9, i64 8
  store ptr @.str, ptr %10, align 8, !tbaa !11
  %11 = getelementptr inbounds nuw i8, ptr %9, i64 16
  store i32 33, ptr %11, align 8, !tbaa !17
  %12 = getelementptr inbounds nuw i8, ptr %9, i64 20
  store i32 2, ptr %12, align 4, !tbaa !18
  %13 = getelementptr inbounds nuw i8, ptr %9, i64 24
  store ptr @.str.4, ptr %13, align 8, !tbaa !19
  tail call void @__cxa_throw(ptr nonnull %9, ptr nonnull @_ZTIN6marisa9ExceptionE, ptr nonnull @_ZNSt9exceptionD2Ev) #15
  unreachable

14:                                               ; preds = %3
  call void @llvm.lifetime.start.p0(i64 8, ptr nonnull %4) #12
  %15 = tail call noalias noundef dereferenceable_or_null(1136) ptr @_ZnwmRKSt9nothrow_t(i64 noundef 1136, ptr noundef nonnull align 1 dereferenceable(1) @_ZSt7nothrow) #14
  %16 = icmp eq ptr %15, null
  br i1 %16, label %18, label %17

17:                                               ; preds = %14
  invoke void @_ZN6marisa8grimoire4trie9LoudsTrieC1Ev(ptr noundef nonnull align 8 dereferenceable(1136) %15)
          to label %24 unwind label %31

18:                                               ; preds = %14
  store ptr null, ptr %4, align 8, !tbaa !3
  %19 = tail call ptr @__cxa_allocate_exception(i64 32) #12
  store ptr getelementptr inbounds nuw inrange(-16, 24) (i8, ptr @_ZTVN6marisa9ExceptionE, i64 16), ptr %19, align 8, !tbaa !9
  %20 = getelementptr inbounds nuw i8, ptr %19, i64 8
  store ptr @.str, ptr %20, align 8, !tbaa !11
  %21 = getelementptr inbounds nuw i8, ptr %19, i64 16
  store i32 36, ptr %21, align 8, !tbaa !17
  %22 = getelementptr inbounds nuw i8, ptr %19, i64 20
  store i32 8, ptr %22, align 4, !tbaa !18
  %23 = getelementptr inbounds nuw i8, ptr %19, i64 24
  store ptr @.str.5, ptr %23, align 8, !tbaa !19
  invoke void @__cxa_throw(ptr nonnull %19, ptr nonnull @_ZTIN6marisa9ExceptionE, ptr nonnull @_ZNSt9exceptionD2Ev) #15
          to label %42 unwind label %33

24:                                               ; preds = %17
  store ptr %15, ptr %4, align 8, !tbaa !3
  call void @llvm.lifetime.start.p0(i64 40, ptr nonnull %5) #12
  invoke void @_ZN6marisa8grimoire2io6MapperC1Ev(ptr noundef nonnull align 8 dereferenceable(36) %5)
          to label %25 unwind label %35

25:                                               ; preds = %24
  invoke void @_ZN6marisa8grimoire2io6Mapper4openEPKvm(ptr noundef nonnull align 8 dereferenceable(36) %5, ptr noundef %1, i64 noundef %2)
          to label %26 unwind label %37

26:                                               ; preds = %25
  invoke void @_ZN6marisa8grimoire4trie9LoudsTrie3mapERNS0_2io6MapperE(ptr noundef nonnull align 8 dereferenceable(1136) %15, ptr noundef nonnull align 8 dereferenceable(36) %5)
          to label %27 unwind label %37

27:                                               ; preds = %26
  %28 = load ptr, ptr %0, align 8, !tbaa !20
  store ptr %15, ptr %0, align 8, !tbaa !20
  call void @_ZN6marisa8grimoire2io6MapperD1Ev(ptr noundef nonnull align 8 dereferenceable(36) %5) #12
  call void @llvm.lifetime.end.p0(i64 40, ptr nonnull %5) #12
  %29 = icmp eq ptr %28, null
  br i1 %29, label %_ZN6marisa10scoped_ptrINS_8grimoire4trie9LoudsTrieEED2Ev.exit, label %30

30:                                               ; preds = %27
  call void @_ZN6marisa8grimoire4trie9LoudsTrieD1Ev(ptr noundef nonnull align 8 dereferenceable(1136) %28) #12
  call void @_ZdlPvm(ptr noundef nonnull %28, i64 noundef 1136) #13
  br label %_ZN6marisa10scoped_ptrINS_8grimoire4trie9LoudsTrieEED2Ev.exit

_ZN6marisa10scoped_ptrINS_8grimoire4trie9LoudsTrieEED2Ev.exit: ; preds = %27, %30
  call void @llvm.lifetime.end.p0(i64 8, ptr nonnull %4) #12
  ret void

31:                                               ; preds = %17
  %32 = landingpad { ptr, i32 }
          cleanup
  tail call void @_ZdlPvRKSt9nothrow_t(ptr noundef nonnull %15, ptr noundef nonnull align 1 dereferenceable(1) @_ZSt7nothrow) #13
  br label %41

33:                                               ; preds = %18
  %34 = landingpad { ptr, i32 }
          cleanup
  br label %40

35:                                               ; preds = %24
  %36 = landingpad { ptr, i32 }
          cleanup
  br label %39

37:                                               ; preds = %26, %25
  %38 = landingpad { ptr, i32 }
          cleanup
  call void @_ZN6marisa8grimoire2io6MapperD1Ev(ptr noundef nonnull align 8 dereferenceable(36) %5) #12
  br label %39

39:                                               ; preds = %37, %35
  %.pn = phi { ptr, i32 } [ %38, %37 ], [ %36, %35 ]
  call void @llvm.lifetime.end.p0(i64 40, ptr nonnull %5) #12
  br label %40

40:                                               ; preds = %39, %33
  %.pn14 = phi { ptr, i32 } [ %34, %33 ], [ %.pn, %39 ]
  call void @_ZN6marisa10scoped_ptrINS_8grimoire4trie9LoudsTrieEED2Ev(ptr noundef nonnull align 8 dereferenceable(8) %4) #12
  br label %41

41:                                               ; preds = %31, %40
  %.pn14.pn = phi { ptr, i32 } [ %.pn14, %40 ], [ %32, %31 ]
  call void @llvm.lifetime.end.p0(i64 8, ptr nonnull %4) #12
  resume { ptr, i32 } %.pn14.pn

42:                                               ; preds = %18
  unreachable
}